target datalayout = "e-m:e-p270:32:32-p271:32:32-p272:64:64-i64:64-i128:128-f80:128-n8:16:32:64-S128"
target triple = "x86_64-pc-linux-gnu"

%struct.AVFormatContext = type { ptr, ptr, ptr, ptr, ptr, i32, i32, ptr, i32, ptr, i32, ptr, ptr, i64, i64, i64, i32, i32, i32, i64, i64, ptr, i32, i32, ptr, i32, i32, i32, i32, ptr, i64, i32, i32, %struct.AVIOInterruptCB, i32, i32, i32, i32, i64, i32, i32, i32, i32, i32, i32, i32, i32, i32, i32, i32, i32, i64, i32, i32, i32, i32, i32, ptr, ptr, ptr, ptr, i32, ptr, ptr, ptr, ptr, i32, ptr, ptr, i64, ptr, ptr, ptr, i64 }
%struct.AVIOInterruptCB = type { ptr, ptr }
%struct.Hnm4DemuxContext = type { i32, i32, i32 }
%struct.AVIOContext = type { ptr, ptr, i32, ptr, ptr, ptr, ptr, ptr, ptr, i64, i32, i32, i32, i32, i32, i64, ptr, ptr, ptr, ptr, i32, i32, ptr, ptr, ptr, i32, ptr, i64, i64 }

@.str.3 = private unnamed_addr constant [37 x i8] c"invalid chunk size: %u, offset: %ld\0A\00", align 1
@.str.4 = private unnamed_addr constant [38 x i8] c"unknown chunk found: %u, offset: %ld\0A\00", align 1

; Function Attrs: alwaysinline nounwind uwtable
define internal i64 @avio_tell(ptr noundef %0) #3 {
  %2 = alloca ptr, align 8
  store ptr %0, ptr %2, align 8, !tbaa !35
  %3 = load ptr, ptr %2, align 8, !tbaa !35
  %4 = call i64 @avio_seek(ptr noundef %3, i64 noundef 0, i32 noundef 1)
  ret i64 %4
}

; Function Attrs: nounwind uwtable
define internal i32 @hnm_read_packet(ptr noundef %0, ptr noundef %1) #0 {
  %3 = alloca i32, align 4
  %4 = alloca ptr, align 8
  %5 = alloca ptr, align 8
  %6 = alloca ptr, align 8
  %7 = alloca ptr, align 8
  %8 = alloca i32, align 4
  %9 = alloca i32, align 4
  %10 = alloca i32, align 4
  %11 = alloca i16, align 2
  %12 = alloca i32, align 4
  store ptr %0, ptr %4, align 8, !tbaa !15
  store ptr %1, ptr %5, align 8, !tbaa !57
  call void @llvm.lifetime.start.p0(i64 8, ptr %6) #4
  %13 = load ptr, ptr %4, align 8, !tbaa !15
  %14 = getelementptr inbounds nuw %struct.AVFormatContext, ptr %13, i32 0, i32 3
  %15 = load ptr, ptr %14, align 8, !tbaa !17
  store ptr %15, ptr %6, align 8, !tbaa !32
  call void @llvm.lifetime.start.p0(i64 8, ptr %7) #4
  %16 = load ptr, ptr %4, align 8, !tbaa !15
  %17 = getelementptr inbounds nuw %struct.AVFormatContext, ptr %16, i32 0, i32 4
  %18 = load ptr, ptr %17, align 8, !tbaa !34
  store ptr %18, ptr %7, align 8, !tbaa !35
  call void @llvm.lifetime.start.p0(i64 4, ptr %8) #4
  store i32 0, ptr %8, align 4, !tbaa !36
  call void @llvm.lifetime.start.p0(i64 4, ptr %9) #4
  call void @llvm.lifetime.start.p0(i64 4, ptr %10) #4
  call void @llvm.lifetime.start.p0(i64 2, ptr %11) #4
  %19 = load ptr, ptr %6, align 8, !tbaa !32
  %20 = getelementptr inbounds nuw %struct.Hnm4DemuxContext, ptr %19, i32 0, i32 1
  %21 = load i32, ptr %20, align 4, !tbaa !59
  %22 = load ptr, ptr %6, align 8, !tbaa !32
  %23 = getelementptr inbounds nuw %struct.Hnm4DemuxContext, ptr %22, i32 0, i32 0
  %24 = load i32, ptr %23, align 4, !tbaa !37
  %25 = icmp eq i32 %21, %24
  br i1 %25, label %31, label %26

26:                                               ; preds = %2
  %27 = load ptr, ptr %7, align 8, !tbaa !35
  %28 = getelementptr inbounds nuw %struct.AVIOContext, ptr %27, i32 0, i32 10
  %29 = load i32, ptr %28, align 8, !tbaa !60
  %30 = icmp ne i32 %29, 0
  br i1 %30, label %31, label %32

31:                                               ; preds = %26, %2
  store i32 -541478725, ptr %3, align 4
  store i32 1, ptr %12, align 4
  br label %141

32:                                               ; preds = %26
  %33 = load ptr, ptr %6, align 8, !tbaa !32
  %34 = getelementptr inbounds nuw %struct.Hnm4DemuxContext, ptr %33, i32 0, i32 2
  %35 = load i32, ptr %34, align 4, !tbaa !62
  %36 = icmp eq i32 %35, 0
  br i1 %36, label %37, label %50

37:                                               ; preds = %32
  %38 = load ptr, ptr %7, align 8, !tbaa !35
  %39 = call i32 @avio_rl24(ptr noundef %38)
  store i32 %39, ptr %9, align 4, !tbaa !36
  %40 = load i32, ptr %9, align 4, !tbaa !36
  %41 = icmp ult i32 %40, 4
  br i1 %41, label %42, label %43

42:                                               ; preds = %37
  store i32 -1094995529, ptr %3, align 4
  store i32 1, ptr %12, align 4
  br label %141

43:                                               ; preds = %37
  %44 = load ptr, ptr %7, align 8, !tbaa !35
  %45 = call i64 @avio_skip(ptr noundef %44, i64 noundef 1)
  %46 = load i32, ptr %9, align 4, !tbaa !36
  %47 = sub i32 %46, 4
  %48 = load ptr, ptr %6, align 8, !tbaa !32
  %49 = getelementptr inbounds nuw %struct.Hnm4DemuxContext, ptr %48, i32 0, i32 2
  store i32 %47, ptr %49, align 4, !tbaa !62
  br label %50

50:                                               ; preds = %43, %32
  %51 = load ptr, ptr %7, align 8, !tbaa !35
  %52 = call i32 @avio_rl24(ptr noundef %51)
  store i32 %52, ptr %10, align 4, !tbaa !36
  %53 = load ptr, ptr %7, align 8, !tbaa !35
  %54 = call i64 @avio_skip(ptr noundef %53, i64 noundef 1)
  %55 = load ptr, ptr %7, align 8, !tbaa !35
  %56 = call i32 @avio_rl16(ptr noundef %55)
  %57 = trunc i32 %56 to i16
  store i16 %57, ptr %11, align 2, !tbaa !63
  %58 = load ptr, ptr %7, align 8, !tbaa !35
  %59 = call i64 @avio_skip(ptr noundef %58, i64 noundef 2)
  %60 = load i32, ptr %10, align 4, !tbaa !36
  %61 = load ptr, ptr %6, align 8, !tbaa !32
  %62 = getelementptr inbounds nuw %struct.Hnm4DemuxContext, ptr %61, i32 0, i32 2
  %63 = load i32, ptr %62, align 4, !tbaa !62
  %64 = icmp ugt i32 %60, %63
  br i1 %64, label %68, label %65

65:                                               ; preds = %50
  %66 = load i32, ptr %10, align 4, !tbaa !36
  %67 = icmp ult i32 %66, 8
  br i1 %67, label %68, label %82

68:                                               ; preds = %65, %50
  %69 = load ptr, ptr %4, align 8, !tbaa !15
  %70 = load i32, ptr %10, align 4, !tbaa !36
  %71 = load ptr, ptr %7, align 8, !tbaa !35
  %72 = call i64 @avio_tell(ptr noundef %71)
  call void (ptr, i32, ptr, ...) @av_log(ptr noundef %69, i32 noundef 16, ptr noundef @.str.3, i32 noundef %70, i64 noundef %72)
  %73 = load ptr, ptr %7, align 8, !tbaa !35
  %74 = load ptr, ptr %6, align 8, !tbaa !32
  %75 = getelementptr inbounds nuw %struct.Hnm4DemuxContext, ptr %74, i32 0, i32 2
  %76 = load i32, ptr %75, align 4, !tbaa !62
  %77 = sub i32 %76, 8
  %78 = zext i32 %77 to i64
  %79 = call i64 @avio_skip(ptr noundef %73, i64 noundef %78)
  %80 = load ptr, ptr %6, align 8, !tbaa !32
  %81 = getelementptr inbounds nuw %struct.Hnm4DemuxContext, ptr %80, i32 0, i32 2
  store i32 0, ptr %81, align 4, !tbaa !62
  br label %82

82:                                               ; preds = %68, %65
  %83 = load i16, ptr %11, align 2, !tbaa !63
  %84 = zext i16 %83 to i32
  switch i32 %84, label %123 [
    i32 19536, label %85
    i32 23113, label %85
    i32 21833, label %85
    i32 17491, label %112
  ]

85:                                               ; preds = %82, %82, %82
  %86 = load ptr, ptr %7, align 8, !tbaa !35
  %87 = call i64 @avio_seek(ptr noundef %86, i64 noundef -8, i32 noundef 1)
  %88 = load ptr, ptr %7, align 8, !tbaa !35
  %89 = load ptr, ptr %5, align 8, !tbaa !57
  %90 = load i32, ptr %10, align 4, !tbaa !36
  %91 = call i32 @av_get_packet(ptr noundef %88, ptr noundef %89, i32 noundef %90)
  %92 = load i32, ptr %8, align 4, !tbaa !36
  %93 = add nsw i32 %92, %91
  store i32 %93, ptr %8, align 4, !tbaa !36
  %94 = load i32, ptr %10, align 4, !tbaa !36
  %95 = load ptr, ptr %6, align 8, !tbaa !32
  %96 = getelementptr inbounds nuw %struct.Hnm4DemuxContext, ptr %95, i32 0, i32 2
  %97 = load i32, ptr %96, align 4, !tbaa !62
  %98 = sub i32 %97, %94
  store i32 %98, ptr %96, align 4, !tbaa !62
  %99 = load i16, ptr %11, align 2, !tbaa !63
  %100 = zext i16 %99 to i32
  %101 = icmp eq i32 %100, 23113
  br i1 %101, label %106, label %102

102:                                              ; preds = %85
  %103 = load i16, ptr %11, align 2, !tbaa !63
  %104 = zext i16 %103 to i32
  %105 = icmp eq i32 %104, 21833
  br i1 %105, label %106, label %111

106:                                              ; preds = %102, %85
  %107 = load ptr, ptr %6, align 8, !tbaa !32
  %108 = getelementptr inbounds nuw %struct.Hnm4DemuxContext, ptr %107, i32 0, i32 1
  %109 = load i32, ptr %108, align 4, !tbaa !59
  %110 = add i32 %109, 1
  store i32 %110, ptr %108, align 4, !tbaa !59
  br label %111

111:                                              ; preds = %106, %102
  br label %139

112:                                              ; preds = %82
  %113 = load ptr, ptr %7, align 8, !tbaa !35
  %114 = load i32, ptr %10, align 4, !tbaa !36
  %115 = sub i32 %114, 8
  %116 = zext i32 %115 to i64
  %117 = call i64 @avio_skip(ptr noundef %113, i64 noundef %116)
  %118 = load i32, ptr %10, align 4, !tbaa !36
  %119 = load ptr, ptr %6, align 8, !tbaa !32
  %120 = getelementptr inbounds nuw %struct.Hnm4DemuxContext, ptr %119, i32 0, i32 2
  %121 = load i32, ptr %120, align 4, !tbaa !62
  %122 = sub i32 %121, %118
  store i32 %122, ptr %120, align 4, !tbaa !62
  br label %139

123:                                              ; preds = %82
  %124 = load ptr, ptr %4, align 8, !tbaa !15
  %125 = load i16, ptr %11, align 2, !tbaa !63
  %126 = zext i16 %125 to i32
  %127 = load ptr, ptr %7, align 8, !tbaa !35
  %128 = call i64 @avio_tell(ptr noundef %127)
  call void (ptr, i32, ptr, ...) @av_log(ptr noundef %124, i32 noundef 24, ptr noundef @.str.4, i32 noundef %126, i64 noundef %128)
  %129 = load ptr, ptr %7, align 8, !tbaa !35
  %130 = load i32, ptr %10, align 4, !tbaa !36
  %131 = sub i32 %130, 8
  %132 = zext i32 %131 to i64
  %133 = call i64 @avio_skip(ptr noundef %129, i64 noundef %132)
  %134 = load i32, ptr %10, align 4, !tbaa !36
  %135 = load ptr, ptr %6, align 8, !tbaa !32
  %136 = getelementptr inbounds nuw %struct.Hnm4DemuxContext, ptr %135, i32 0, i32 2
  %137 = load i32, ptr %136, align 4, !tbaa !62
  %138 = sub i32 %137, %134
  store i32 %138, ptr %136, align 4, !tbaa !62
  br label %139

139:                                              ; preds = %123, %112, %111
  %140 = load i32, ptr %8, align 4, !tbaa !36
  store i32 %140, ptr %3, align 4
  store i32 1, ptr %12, align 4
  br label %141

141:                                              ; preds = %139, %42, %31
  call void @llvm.lifetime.end.p0(i64 2, ptr %11) #4
  call void @llvm.lifetime.end.p0(i64 4, ptr %10) #4
  call void @llvm.lifetime.end.p0(i64 4, ptr %9) #4
  call void @llvm.lifetime.end.p0(i64 4, ptr %8) #4
  call void @llvm.lifetime.end.p0(i64 8, ptr %7) #4
  call void @llvm.lifetime.end.p0(i64 8, ptr %6) #4
  %142 = load i32, ptr %3, align 4
  ret i32 %142
}