; Function Attrs: nounwind uwtable
define internal i32 @hnm_read_packet(ptr noundef %0, ptr noundef %1) #1 {
  %3 = getelementptr inbounds nuw i8, ptr %0, i64 24
  %4 = load ptr, ptr %3, align 8, !tbaa !13
  %5 = getelementptr inbounds nuw i8, ptr %0, i64 32
  %6 = load ptr, ptr %5, align 8, !tbaa !28
  %7 = getelementptr inbounds nuw i8, ptr %4, i64 4
  %8 = load i32, ptr %7, align 4, !tbaa !47
  %9 = load i32, ptr %4, align 4, !tbaa !29
  %10 = icmp eq i32 %8, %9
  br i1 %10, label %61, label %11

11:                                               ; preds = %2
  %12 = getelementptr inbounds nuw i8, ptr %6, i64 80
  %13 = load i32, ptr %12, align 8, !tbaa !48
  %.not = icmp eq i32 %13, 0
  br i1 %.not, label %14, label %61

14:                                               ; preds = %11
  %15 = getelementptr inbounds nuw i8, ptr %4, i64 8
  %16 = load i32, ptr %15, align 4, !tbaa !50
  %17 = icmp eq i32 %16, 0
  br i1 %17, label %18, label %24

18:                                               ; preds = %14
  %19 = tail call i32 @avio_rl24(ptr noundef nonnull %6) #3
  %20 = icmp ult i32 %19, 4
  br i1 %20, label %61, label %21

21:                                               ; preds = %18
  %22 = tail call i64 @avio_skip(ptr noundef nonnull %6, i64 noundef 1) #3
  %23 = add i32 %19, -4
  store i32 %23, ptr %15, align 4, !tbaa !50
  br label %24

24:                                               ; preds = %21, %14
  %25 = tail call i32 @avio_rl24(ptr noundef nonnull %6) #3
  %26 = tail call i64 @avio_skip(ptr noundef nonnull %6, i64 noundef 1) #3
  %27 = tail call i32 @avio_rl16(ptr noundef nonnull %6) #3
  %28 = tail call i64 @avio_skip(ptr noundef nonnull %6, i64 noundef 2) #3
  %29 = load i32, ptr %15, align 4, !tbaa !50
  %30 = icmp ugt i32 %25, %29
  %31 = icmp ult i32 %25, 8
  %or.cond = or i1 %31, %30
  br i1 %or.cond, label %32, label %38

32:                                               ; preds = %24
  %33 = tail call i64 @avio_seek(ptr noundef nonnull %6, i64 noundef 0, i32 noundef 1) #3
  tail call void (ptr, i32, ptr, ...) @av_log(ptr noundef nonnull %0, i32 noundef 16, ptr noundef nonnull @.str.3, i32 noundef %25, i64 noundef %33) #3
  %34 = load i32, ptr %15, align 4, !tbaa !50
  %35 = add i32 %34, -8
  %36 = zext i32 %35 to i64
  %37 = tail call i64 @avio_skip(ptr noundef nonnull %6, i64 noundef %36) #3
  store i32 0, ptr %15, align 4, !tbaa !50
  br label %38

38:                                               ; preds = %24, %32
  %trunc = trunc i32 %27 to i16
  switch i16 %trunc, label %53 [
    i16 19536, label %39
    i16 23113, label %39
    i16 21833, label %39
    i16 17491, label %47
  ]

39:                                               ; preds = %38, %38, %38
  %40 = tail call i64 @avio_seek(ptr noundef nonnull %6, i64 noundef -8, i32 noundef 1) #3
  %41 = tail call i32 @av_get_packet(ptr noundef nonnull %6, ptr noundef %1, i32 noundef %25) #3
  %42 = load i32, ptr %15, align 4, !tbaa !50
  %43 = sub i32 %42, %25
  store i32 %43, ptr %15, align 4, !tbaa !50
  switch i16 %trunc, label %61 [
    i16 23113, label %44
    i16 21833, label %44
  ]

44:                                               ; preds = %39, %39
  %45 = load i32, ptr %7, align 4, !tbaa !47
  %46 = add i32 %45, 1
  store i32 %46, ptr %7, align 4, !tbaa !47
  br label %61

47:                                               ; preds = %38
  %48 = add i32 %25, -8
  %49 = zext i32 %48 to i64
  %50 = tail call i64 @avio_skip(ptr noundef nonnull %6, i64 noundef %49) #3
  %51 = load i32, ptr %15, align 4, !tbaa !50
  %52 = sub i32 %51, %25
  store i32 %52, ptr %15, align 4, !tbaa !50
  br label %61

53:                                               ; preds = %38
  %54 = and i32 %27, 65535
  %55 = tail call i64 @avio_seek(ptr noundef nonnull %6, i64 noundef 0, i32 noundef 1) #3
  tail call void (ptr, i32, ptr, ...) @av_log(ptr noundef nonnull %0, i32 noundef 24, ptr noundef nonnull @.str.4, i32 noundef %54, i64 noundef %55) #3
  %56 = add i32 %25, -8
  %57 = zext i32 %56 to i64
  %58 = tail call i64 @avio_skip(ptr noundef nonnull %6, i64 noundef %57) #3
  %59 = load i32, ptr %15, align 4, !tbaa !50
  %60 = sub i32 %59, %25
  store i32 %60, ptr %15, align 4, !tbaa !50
  br label %61

61:                                               ; preds = %47, %53, %44, %39, %18, %2, %11
  %.0 = phi i32 [ -541478725, %11 ], [ -541478725, %2 ], [ -1094995529, %18 ], [ 0, %53 ], [ 0, %47 ], [ %41, %44 ], [ %41, %39 ]
  ret i32 %.0
}